target datalayout = "e-m:e-p270:32:32-p271:32:32-p272:64:64-i64:64-i128:128-f80:128-n8:16:32:64-S128"
target triple = "x86_64-pc-linux-gnu"

%struct.dirent = type { i64, i64, i16, i8, [256 x i8] }

@.str.5 = private unnamed_addr constant [5 x i8] c".crt\00", align 1
@.str.6 = private unnamed_addr constant [6 x i8] c"%s/%s\00", align 1

; Function Attrs: nounwind uwtable
define i32 @cl_validate_certificate_chain_ts_dir(ptr noundef %0, ptr noundef %1) #0 {
  %3 = alloca i32, align 4
  %4 = alloca ptr, align 8
  %5 = alloca ptr, align 8
  %6 = alloca ptr, align 8
  %7 = alloca ptr, align 8
  %8 = alloca i64, align 8
  %9 = alloca i32, align 4
  %10 = alloca ptr, align 8
  %11 = alloca ptr, align 8
  %12 = alloca i32, align 4
  store ptr %0, ptr %4, align 8, !tbaa !3
  store ptr %1, ptr %5, align 8, !tbaa !3
  call void @llvm.lifetime.start.p0(i64 8, ptr %6) #8
  store ptr null, ptr %6, align 8, !tbaa !30
  call void @llvm.lifetime.start.p0(i64 8, ptr %7) #8
  call void @llvm.lifetime.start.p0(i64 8, ptr %8) #8
  store i64 0, ptr %8, align 8, !tbaa !9
  call void @llvm.lifetime.start.p0(i64 4, ptr %9) #8
  call void @llvm.lifetime.start.p0(i64 8, ptr %10) #8
  call void @llvm.lifetime.start.p0(i64 8, ptr %11) #8
  %13 = load ptr, ptr %4, align 8, !tbaa !3
  %14 = call ptr @opendir(ptr noundef %13)
  store ptr %14, ptr %10, align 8, !tbaa !32
  %15 = load ptr, ptr %10, align 8, !tbaa !32
  %16 = icmp ne ptr %15, null
  br i1 %16, label %18, label %17

17:                                               ; preds = %2
  store i32 8, ptr %3, align 4
  store i32 1, ptr %12, align 4
  br label %162

18:                                               ; preds = %2
  br label %19

19:                                               ; preds = %104, %37, %30, %18
  %20 = load ptr, ptr %10, align 8, !tbaa !32
  %21 = call ptr @readdir(ptr noundef %20)
  store ptr %21, ptr %11, align 8, !tbaa !34
  %22 = icmp ne ptr %21, null
  br i1 %22, label %23, label %116

23:                                               ; preds = %19
  %24 = load ptr, ptr %11, align 8, !tbaa !34
  %25 = getelementptr inbounds nuw %struct.dirent, ptr %24, i32 0, i32 4
  %26 = getelementptr inbounds [256 x i8], ptr %25, i64 0, i64 0
  %27 = load i8, ptr %26, align 1, !tbaa !36
  %28 = sext i8 %27 to i32
  %29 = icmp eq i32 %28, 46
  br i1 %29, label %30, label %31

30:                                               ; preds = %23
  br label %19

31:                                               ; preds = %23
  %32 = load ptr, ptr %11, align 8, !tbaa !34
  %33 = getelementptr inbounds nuw %struct.dirent, ptr %32, i32 0, i32 4
  %34 = getelementptr inbounds [256 x i8], ptr %33, i64 0, i64 0
  %35 = call i32 @cli_strbcasestr(ptr noundef %34, ptr noundef @.str.5)
  %36 = icmp ne i32 %35, 0
  br i1 %36, label %38, label %37

37:                                               ; preds = %31
  br label %19

38:                                               ; preds = %31
  %39 = load ptr, ptr %6, align 8, !tbaa !30
  %40 = load i64, ptr %8, align 8, !tbaa !9
  %41 = add i64 %40, 1
  %42 = mul i64 8, %41
  %43 = call ptr @realloc(ptr noundef %39, i64 noundef %42) #12
  store ptr %43, ptr %7, align 8, !tbaa !30
  %44 = load ptr, ptr %7, align 8, !tbaa !30
  %45 = icmp ne ptr %44, null
  br i1 %45, label %64, label %46

46:                                               ; preds = %38
  %47 = load i64, ptr %8, align 8, !tbaa !9
  %48 = icmp ne i64 %47, 0
  br i1 %48, label %49, label %61

49:                                               ; preds = %46
  br label %50

50:                                               ; preds = %53, %49
  %51 = load i64, ptr %8, align 8, !tbaa !9
  %52 = icmp ugt i64 %51, 0
  br i1 %52, label %53, label %59

53:                                               ; preds = %50
  %54 = load ptr, ptr %6, align 8, !tbaa !30
  %55 = load i64, ptr %8, align 8, !tbaa !9
  %56 = add i64 %55, -1
  store i64 %56, ptr %8, align 8, !tbaa !9
  %57 = getelementptr inbounds nuw ptr, ptr %54, i64 %56
  %58 = load ptr, ptr %57, align 8, !tbaa !3
  call void @free(ptr noundef %58) #8
  br label %50

59:                                               ; preds = %50
  %60 = load ptr, ptr %6, align 8, !tbaa !30
  call void @free(ptr noundef %60) #8
  br label %61

61:                                               ; preds = %59, %46
  %62 = load ptr, ptr %10, align 8, !tbaa !32
  %63 = call i32 @closedir(ptr noundef %62)
  store i32 -1, ptr %3, align 4
  store i32 1, ptr %12, align 4
  br label %162

64:                                               ; preds = %38
  %65 = load ptr, ptr %7, align 8, !tbaa !30
  store ptr %65, ptr %6, align 8, !tbaa !30
  %66 = load ptr, ptr %4, align 8, !tbaa !3
  %67 = call i64 @strlen(ptr noundef %66) #11
  %68 = load ptr, ptr %11, align 8, !tbaa !34
  %69 = getelementptr inbounds nuw %struct.dirent, ptr %68, i32 0, i32 4
  %70 = getelementptr inbounds [256 x i8], ptr %69, i64 0, i64 0
  %71 = call i64 @strlen(ptr noundef %70) #11
  %72 = add i64 %67, %71
  %73 = add i64 %72, 2
  %74 = call noalias ptr @malloc(i64 noundef %73) #9
  %75 = load ptr, ptr %6, align 8, !tbaa !30
  %76 = load i64, ptr %8, align 8, !tbaa !9
  %77 = getelementptr inbounds nuw ptr, ptr %75, i64 %76
  store ptr %74, ptr %77, align 8, !tbaa !3
  %78 = load ptr, ptr %6, align 8, !tbaa !30
  %79 = load i64, ptr %8, align 8, !tbaa !9
  %80 = getelementptr inbounds nuw ptr, ptr %78, i64 %79
  %81 = load ptr, ptr %80, align 8, !tbaa !3
  %82 = icmp ne ptr %81, null
  br i1 %82, label %104, label %83

83:                                               ; preds = %64
  %84 = load i64, ptr %8, align 8, !tbaa !9
  %85 = icmp ne i64 %84, 0
  br i1 %85, label %86, label %100

86:                                               ; preds = %83
  br label %87

87:                                               ; preds = %90, %86
  %88 = load i64, ptr %8, align 8, !tbaa !9
  %89 = icmp ugt i64 %88, 0
  br i1 %89, label %90, label %96

90:                                               ; preds = %87
  %91 = load ptr, ptr %6, align 8, !tbaa !30
  %92 = load i64, ptr %8, align 8, !tbaa !9
  %93 = add i64 %92, -1
  store i64 %93, ptr %8, align 8, !tbaa !9
  %94 = getelementptr inbounds nuw ptr, ptr %91, i64 %92
  %95 = load ptr, ptr %94, align 8, !tbaa !3
  call void @free(ptr noundef %95) #8
  br label %87

96:                                               ; preds = %87
  %97 = load ptr, ptr %6, align 8, !tbaa !30
  %98 = getelementptr inbounds ptr, ptr %97, i64 0
  %99 = load ptr, ptr %98, align 8, !tbaa !3
  call void @free(ptr noundef %99) #8
  br label %100

100:                                              ; preds = %96, %83
  %101 = load ptr, ptr %6, align 8, !tbaa !30
  call void @free(ptr noundef %101) #8
  %102 = load ptr, ptr %10, align 8, !tbaa !32
  %103 = call i32 @closedir(ptr noundef %102)
  store i32 -1, ptr %3, align 4
  store i32 1, ptr %12, align 4
  br label %162

104:                                              ; preds = %64
  %105 = load ptr, ptr %6, align 8, !tbaa !30
  %106 = load i64, ptr %8, align 8, !tbaa !9
  %107 = getelementptr inbounds nuw ptr, ptr %105, i64 %106
  %108 = load ptr, ptr %107, align 8, !tbaa !3
  %109 = load ptr, ptr %4, align 8, !tbaa !3
  %110 = load ptr, ptr %11, align 8, !tbaa !34
  %111 = getelementptr inbounds nuw %struct.dirent, ptr %110, i32 0, i32 4
  %112 = getelementptr inbounds [256 x i8], ptr %111, i64 0, i64 0
  %113 = call i32 (ptr, ptr, ...) @sprintf(ptr noundef %108, ptr noundef @.str.6, ptr noundef %109, ptr noundef %112) #8
  %114 = load i64, ptr %8, align 8, !tbaa !9
  %115 = add i64 %114, 1
  store i64 %115, ptr %8, align 8, !tbaa !9
  br label %19

116:                                              ; preds = %19
  %117 = load ptr, ptr %10, align 8, !tbaa !32
  %118 = call i32 @closedir(ptr noundef %117)
  %119 = load ptr, ptr %6, align 8, !tbaa !30
  %120 = load i64, ptr %8, align 8, !tbaa !9
  %121 = add i64 %120, 1
  %122 = mul i64 8, %121
  %123 = call ptr @realloc(ptr noundef %119, i64 noundef %122) #12
  store ptr %123, ptr %7, align 8, !tbaa !30
  %124 = load ptr, ptr %7, align 8, !tbaa !30
  %125 = icmp ne ptr %124, null
  br i1 %125, label %142, label %126

126:                                              ; preds = %116
  %127 = load i64, ptr %8, align 8, !tbaa !9
  %128 = icmp ne i64 %127, 0
  br i1 %128, label %129, label %141

129:                                              ; preds = %126
  br label %130

130:                                              ; preds = %133, %129
  %131 = load i64, ptr %8, align 8, !tbaa !9
  %132 = icmp ugt i64 %131, 0
  br i1 %132, label %133, label %139

133:                                              ; preds = %130
  %134 = load ptr, ptr %6, align 8, !tbaa !30
  %135 = load i64, ptr %8, align 8, !tbaa !9
  %136 = add i64 %135, -1
  store i64 %136, ptr %8, align 8, !tbaa !9
  %137 = getelementptr inbounds nuw ptr, ptr %134, i64 %136
  %138 = load ptr, ptr %137, align 8, !tbaa !3
  call void @free(ptr noundef %138) #8
  br label %130

139:                                              ; preds = %130
  %140 = load ptr, ptr %6, align 8, !tbaa !30
  call void @free(ptr noundef %140) #8
  br label %141

141:                                              ; preds = %139, %126
  store i32 -1, ptr %3, align 4
  store i32 1, ptr %12, align 4
  br label %162

142:                                              ; preds = %116
  %143 = load ptr, ptr %7, align 8, !tbaa !30
  store ptr %143, ptr %6, align 8, !tbaa !30
  %144 = load ptr, ptr %6, align 8, !tbaa !30
  %145 = load i64, ptr %8, align 8, !tbaa !9
  %146 = getelementptr inbounds nuw ptr, ptr %144, i64 %145
  store ptr null, ptr %146, align 8, !tbaa !3
  %147 = load ptr, ptr %6, align 8, !tbaa !30
  %148 = load ptr, ptr %5, align 8, !tbaa !3
  %149 = call i32 @cl_validate_certificate_chain(ptr noundef %147, ptr noundef null, ptr noundef %148)
  store i32 %149, ptr %9, align 4, !tbaa !13
  br label %150

150:                                              ; preds = %153, %142
  %151 = load i64, ptr %8, align 8, !tbaa !9
  %152 = icmp ugt i64 %151, 0
  br i1 %152, label %153, label %159

153:                                              ; preds = %150
  %154 = load ptr, ptr %6, align 8, !tbaa !30
  %155 = load i64, ptr %8, align 8, !tbaa !9
  %156 = add i64 %155, -1
  store i64 %156, ptr %8, align 8, !tbaa !9
  %157 = getelementptr inbounds nuw ptr, ptr %154, i64 %156
  %158 = load ptr, ptr %157, align 8, !tbaa !3
  call void @free(ptr noundef %158) #8
  br label %150

159:                                              ; preds = %150
  %160 = load ptr, ptr %6, align 8, !tbaa !30
  call void @free(ptr noundef %160) #8
  %161 = load i32, ptr %9, align 4, !tbaa !13
  store i32 %161, ptr %3, align 4
  store i32 1, ptr %12, align 4
  br label %162

162:                                              ; preds = %159, %141, %100, %61, %17
  call void @llvm.lifetime.end.p0(i64 8, ptr %11) #8
  call void @llvm.lifetime.end.p0(i64 8, ptr %10) #8
  call void @llvm.lifetime.end.p0(i64 4, ptr %9) #8
  call void @llvm.lifetime.end.p0(i64 8, ptr %8) #8
  call void @llvm.lifetime.end.p0(i64 8, ptr %7) #8
  call void @llvm.lifetime.end.p0(i64 8, ptr %6) #8
  %163 = load i32, ptr %3, align 4
  ret i32 %163
}