; Function Attrs: nounwind uwtable
define range(i32 -1, 9) i32 @cl_validate_certificate_chain_ts_dir(ptr noundef %0, ptr noundef %1) local_unnamed_addr #1 {
  %3 = tail call ptr @opendir(ptr noundef %0)
  %.not = icmp eq ptr %3, null
  br i1 %.not, label %57, label %.preheader72

.preheader72:                                     ; preds = %2
  %4 = tail call ptr @readdir(ptr noundef nonnull %3) #12
  %.not587983 = icmp eq ptr %4, null
  br i1 %.not587983, label %.outer._crit_edge, label %.lr.ph

.lr.ph:                                           ; preds = %.preheader72, %.outer
  %5 = phi ptr [ %41, %.outer ], [ %4, %.preheader72 ]
  %.052.ph85 = phi ptr [ %17, %.outer ], [ null, %.preheader72 ]
  %.053.ph84 = phi i64 [ %15, %.outer ], [ 0, %.preheader72 ]
  br label %6

6:                                                ; preds = %.lr.ph, %.backedge
  %7 = phi ptr [ %5, %.lr.ph ], [ %11, %.backedge ]
  %8 = getelementptr inbounds nuw i8, ptr %7, i64 19
  %9 = load i8, ptr %8, align 1, !tbaa !11
  %10 = icmp eq i8 %9, 46
  br i1 %10, label %.backedge, label %12

.backedge:                                        ; preds = %6, %12
  %11 = tail call ptr @readdir(ptr noundef nonnull %3) #12
  %.not58 = icmp eq ptr %11, null
  br i1 %.not58, label %.outer._crit_edge, label %6

12:                                               ; preds = %6
  %13 = tail call i32 @cli_strbcasestr(ptr noundef nonnull %8, ptr noundef nonnull @.str.5) #12
  %.not63 = icmp eq i32 %13, 0
  br i1 %.not63, label %.backedge, label %14

14:                                               ; preds = %12
  %15 = add i64 %.053.ph84, 1
  %16 = shl i64 %15, 3
  %17 = tail call ptr @realloc(ptr noundef %.052.ph85, i64 noundef %16) #16
  %.not64 = icmp eq ptr %17, null
  br i1 %.not64, label %18, label %25

18:                                               ; preds = %14
  %.not65 = icmp eq i64 %.053.ph84, 0
  br i1 %.not65, label %23, label %.preheader70

.preheader70:                                     ; preds = %18, %.preheader70
  %.189 = phi i64 [ %19, %.preheader70 ], [ %.053.ph84, %18 ]
  %19 = add i64 %.189, -1
  %20 = getelementptr inbounds nuw ptr, ptr %.052.ph85, i64 %19
  %21 = load ptr, ptr %20, align 8, !tbaa !12
  tail call void @free(ptr noundef %21) #12
  %.not66 = icmp eq i64 %19, 0
  br i1 %.not66, label %22, label %.preheader70

22:                                               ; preds = %.preheader70
  tail call void @free(ptr noundef nonnull %.052.ph85) #12
  br label %23

23:                                               ; preds = %22, %18
  %24 = tail call i32 @closedir(ptr noundef nonnull %3)
  br label %57

25:                                               ; preds = %14
  %26 = tail call i64 @strlen(ptr noundef nonnull dereferenceable(1) %0) #15
  %27 = tail call i64 @strlen(ptr noundef nonnull dereferenceable(1) %8) #15
  %28 = add i64 %26, 2
  %29 = add i64 %28, %27
  %30 = tail call noalias ptr @malloc(i64 noundef %29) #13
  %31 = getelementptr inbounds nuw ptr, ptr %17, i64 %.053.ph84
  store ptr %30, ptr %31, align 8, !tbaa !12
  %.not67 = icmp eq ptr %30, null
  br i1 %.not67, label %32, label %.outer

32:                                               ; preds = %25
  %.not68 = icmp eq i64 %.053.ph84, 0
  br i1 %.not68, label %38, label %.preheader71

.preheader71:                                     ; preds = %32, %.preheader71
  %.288 = phi i64 [ %33, %.preheader71 ], [ %.053.ph84, %32 ]
  %33 = add i64 %.288, -1
  %34 = getelementptr inbounds nuw ptr, ptr %17, i64 %.288
  %35 = load ptr, ptr %34, align 8, !tbaa !12
  tail call void @free(ptr noundef %35) #12
  %.not69 = icmp eq i64 %33, 0
  br i1 %.not69, label %36, label %.preheader71

36:                                               ; preds = %.preheader71
  %37 = load ptr, ptr %17, align 8, !tbaa !12
  tail call void @free(ptr noundef %37) #12
  br label %38

38:                                               ; preds = %36, %32
  tail call void @free(ptr noundef nonnull %17) #12
  %39 = tail call i32 @closedir(ptr noundef nonnull %3)
  br label %57

.outer:                                           ; preds = %25
  %40 = tail call i32 (ptr, ptr, ...) @sprintf(ptr noundef nonnull dereferenceable(1) %30, ptr noundef nonnull dereferenceable(1) @.str.6, ptr noundef nonnull %0, ptr noundef nonnull %8) #12
  %41 = tail call ptr @readdir(ptr noundef nonnull %3) #12
  %.not5879 = icmp eq ptr %41, null
  br i1 %.not5879, label %.outer._crit_edge, label %.lr.ph

.outer._crit_edge:                                ; preds = %.outer, %.backedge, %.preheader72
  %.053.ph.lcssa78 = phi i64 [ 0, %.preheader72 ], [ %.053.ph84, %.backedge ], [ %15, %.outer ]
  %.052.ph.lcssa76 = phi ptr [ null, %.preheader72 ], [ %.052.ph85, %.backedge ], [ %17, %.outer ]
  %42 = tail call i32 @closedir(ptr noundef nonnull %3)
  %43 = shl i64 %.053.ph.lcssa78, 3
  %44 = add i64 %43, 8
  %45 = tail call ptr @realloc(ptr noundef %.052.ph.lcssa76, i64 noundef %44) #16
  %.not59 = icmp eq ptr %45, null
  br i1 %.not59, label %46, label %51

46:                                               ; preds = %.outer._crit_edge
  %.not60 = icmp eq i64 %.053.ph.lcssa78, 0
  br i1 %.not60, label %57, label %.preheader

.preheader:                                       ; preds = %46, %.preheader
  %.395 = phi i64 [ %47, %.preheader ], [ %.053.ph.lcssa78, %46 ]
  %47 = add i64 %.395, -1
  %48 = getelementptr inbounds nuw ptr, ptr %.052.ph.lcssa76, i64 %47
  %49 = load ptr, ptr %48, align 8, !tbaa !12
  tail call void @free(ptr noundef %49) #12
  %.not61 = icmp eq i64 %47, 0
  br i1 %.not61, label %50, label %.preheader

50:                                               ; preds = %.preheader
  tail call void @free(ptr noundef nonnull %.052.ph.lcssa76) #12
  br label %57

51:                                               ; preds = %.outer._crit_edge
  %52 = getelementptr inbounds nuw ptr, ptr %45, i64 %.053.ph.lcssa78
  store ptr null, ptr %52, align 8, !tbaa !12
  %53 = tail call i32 @cl_validate_certificate_chain(ptr noundef nonnull %45, ptr noundef null, ptr noundef %1)
  %.not6290 = icmp eq i64 %.053.ph.lcssa78, 0
  br i1 %.not6290, label %._crit_edge94, label %.lr.ph93

.lr.ph93:                                         ; preds = %51, %.lr.ph93
  %.491 = phi i64 [ %54, %.lr.ph93 ], [ %.053.ph.lcssa78, %51 ]
  %54 = add i64 %.491, -1
  %55 = getelementptr inbounds nuw ptr, ptr %45, i64 %54
  %56 = load ptr, ptr %55, align 8, !tbaa !12
  tail call void @free(ptr noundef %56) #12
  %.not62 = icmp eq i64 %54, 0
  br i1 %.not62, label %._crit_edge94, label %.lr.ph93

._crit_edge94:                                    ; preds = %.lr.ph93, %51
  tail call void @free(ptr noundef nonnull %45) #12
  br label %57

57:                                               ; preds = %46, %50, %2, %._crit_edge94, %38, %23
  %.0 = phi i32 [ -1, %38 ], [ -1, %23 ], [ %53, %._crit_edge94 ], [ 8, %2 ], [ -1, %50 ], [ -1, %46 ]
  ret i32 %.0
}